target datalayout = "e-m:e-p270:32:32-p271:32:32-p272:64:64-i64:64-i128:128-f80:128-n8:16:32:64-S128"
target triple = "x86_64-pc-linux-gnu"

@proto_register_hcrt.ett = internal global [4 x ptr] [ptr @ett_hcrt, ptr @ett_hcrt_msg, ptr @ett_hcrt_hdr, ptr @ett_hcrt_body], align 16
@.str.32 = private unnamed_addr constant [46 x i8] c"Hotline Command-Response Transaction protocol\00", align 1
@.str.33 = private unnamed_addr constant [5 x i8] c"HCrt\00", align 1
@.str.34 = private unnamed_addr constant [5 x i8] c"hcrt\00", align 1
@proto_hcrt = internal global i32 0, align 4
@.str.35 = private unnamed_addr constant [20 x i8] c"dissector_ethertype\00", align 1
@.str.36 = private unnamed_addr constant [14 x i8] c"Ethernet type\00", align 1
@.str.37 = private unnamed_addr constant [45 x i8] c"The ethernet type used for L2 communications\00", align 1
@ethertype_pref = internal global i32 61522, align 4
@hcrt_handle = internal global ptr null, align 8

; Function Attrs: null_pointer_is_valid sspstrong uwtable
define hidden void @proto_register_hcrt() #0 {
  %1 = alloca ptr, align 8
  %2 = alloca ptr, align 8
  call void @llvm.lifetime.start.p0(i64 8, ptr %1) #4
  call void @llvm.lifetime.start.p0(i64 8, ptr %2) #4
  %3 = call i32 @proto_register_protocol(ptr noundef @.str.32, ptr noundef @.str.33, ptr noundef @.str.34)
  store i32 %3, ptr @proto_hcrt, align 4
  %4 = load i32, ptr @proto_hcrt, align 4
  call void @proto_register_field_array(i32 noundef %4, ptr noundef @proto_register_hcrt.hf, i32 noundef 16)
  call void @proto_register_subtree_array(ptr noundef @proto_register_hcrt.ett, i32 noundef 4)
  %5 = load i32, ptr @proto_hcrt, align 4
  %6 = call ptr @expert_register_protocol(i32 noundef %5)
  store ptr %6, ptr %1, align 8
  %7 = load ptr, ptr %1, align 8
  call void @expert_register_field_array(ptr noundef %7, ptr noundef @proto_register_hcrt.ei, i32 noundef 1)
  %8 = load i32, ptr @proto_hcrt, align 4
  %9 = call ptr @prefs_register_protocol(i32 noundef %8, ptr noundef @proto_reg_handoff_hcrt)
  store ptr %9, ptr %2, align 8
  %10 = load ptr, ptr %2, align 8
  call void @prefs_register_uint_preference(ptr noundef %10, ptr noundef @.str.35, ptr noundef @.str.36, ptr noundef @.str.37, i32 noundef 10, ptr noundef @ethertype_pref)
  %11 = load i32, ptr @proto_hcrt, align 4
  %12 = call ptr @register_dissector(ptr noundef @.str.34, ptr noundef @dissect_hcrt, i32 noundef %11)
  store ptr %12, ptr @hcrt_handle, align 8
  call void @llvm.lifetime.end.p0(i64 8, ptr %2) #4
  call void @llvm.lifetime.end.p0(i64 8, ptr %1) #4
  ret void
}