; Function Attrs: null_pointer_is_valid sspstrong uwtable
define hidden void @proto_register_hcrt() local_unnamed_addr #0 {
  %1 = tail call i32 @proto_register_protocol(ptr noundef nonnull @.str.32, ptr noundef nonnull @.str.33, ptr noundef nonnull @.str.34)
  store i32 %1, ptr @proto_hcrt, align 4
  tail call void @proto_register_field_array(i32 noundef %1, ptr noundef nonnull @proto_register_hcrt.hf, i32 noundef 16)
  tail call void @proto_register_subtree_array(ptr noundef nonnull @proto_register_hcrt.ett, i32 noundef 4)
  %2 = load i32, ptr @proto_hcrt, align 4
  %3 = tail call ptr @expert_register_protocol(i32 noundef %2)
  tail call void @expert_register_field_array(ptr noundef %3, ptr noundef nonnull @proto_register_hcrt.ei, i32 noundef 1)
  %4 = load i32, ptr @proto_hcrt, align 4
  %5 = tail call ptr @prefs_register_protocol(i32 noundef %4, ptr noundef nonnull @proto_reg_handoff_hcrt)
  tail call void @prefs_register_uint_preference(ptr noundef %5, ptr noundef nonnull @.str.35, ptr noundef nonnull @.str.36, ptr noundef nonnull @.str.37, i32 noundef 10, ptr noundef nonnull @ethertype_pref)
  %6 = load i32, ptr @proto_hcrt, align 4
  %7 = tail call ptr @register_dissector(ptr noundef nonnull @.str.34, ptr noundef nonnull @dissect_hcrt, i32 noundef %6)
  store ptr %7, ptr @hcrt_handle, align 8
  ret void
}